; Function Attrs: nounwind uwtable
define internal fastcc void @InitBlockSplitterDistance(ptr noundef %m, ptr noundef captures(none) initializes((0, 40), (48, 56), (4440, 4464), (4496, 4504)) %self, i64 noundef %num_symbols, ptr noundef %split, ptr noundef writeonly captures(none) %histograms, ptr noundef %histograms_size) unnamed_addr #1 {
entry:
  %div69 = lshr i64 %num_symbols, 9
  %add = add nuw nsw i64 %div69, 1
  store i64 64, ptr %self, align 8
  %min_block_size_ = getelementptr inbounds nuw i8, ptr %self, i64 8
  store i64 512, ptr %min_block_size_, align 8
  %split_threshold_ = getelementptr inbounds nuw i8, ptr %self, i64 16
  store double 1.000000e+02, ptr %split_threshold_, align 8
  %num_blocks_ = getelementptr inbounds nuw i8, ptr %self, i64 24
  store i64 0, ptr %num_blocks_, align 8
  %split_ = getelementptr inbounds nuw i8, ptr %self, i64 32
  store ptr %split, ptr %split_, align 8
  %histograms_size_ = getelementptr inbounds nuw i8, ptr %self, i64 48
  store ptr %histograms_size, ptr %histograms_size_, align 8
  %target_block_size_ = getelementptr inbounds nuw i8, ptr %self, i64 4440
  store i64 512, ptr %target_block_size_, align 8
  %block_size_ = getelementptr inbounds nuw i8, ptr %self, i64 4448
  %merge_last_count_ = getelementptr inbounds nuw i8, ptr %self, i64 4496
  store i64 0, ptr %merge_last_count_, align 8
  %types_alloc_size = getelementptr inbounds nuw i8, ptr %split, i64 32
  tail call void @llvm.memset.p0.i64(ptr noundef nonnull align 8 dereferenceable(16) %block_size_, i8 0, i64 16, i1 false)
  %0 = load i64, ptr %types_alloc_size, align 8
  %cmp.not = icmp ugt i64 %0, %div69
  br i1 %cmp.not, label %if.end21, label %if.then

if.then:                                          ; preds = %entry
  %cmp2 = icmp eq i64 %0, 0
  %add. = select i1 %cmp2, i64 %add, i64 %0
  br label %while.cond

while.cond:                                       ; preds = %while.cond, %if.then
  %_new_size.0 = phi i64 [ %add., %if.then ], [ %mul, %while.cond ]
  %cmp4.not = icmp ugt i64 %_new_size.0, %div69
  %mul = shl nuw nsw i64 %_new_size.0, 1
  br i1 %cmp4.not, label %cond.true6, label %while.cond, !llvm.loop !30

cond.true6:                                       ; preds = %while.cond
  %call8 = tail call ptr @BrotliAllocate(ptr noundef %m, i64 noundef %_new_size.0) #9
  %1 = load i64, ptr %types_alloc_size, align 8
  %cmp13.not = icmp eq i64 %1, 0
  br i1 %cmp13.not, label %if.end, label %if.then14

if.then14:                                        ; preds = %cond.true6
  %types = getelementptr inbounds nuw i8, ptr %split, i64 16
  %2 = load ptr, ptr %types, align 8
  tail call void @llvm.memcpy.p0.p0.i64(ptr align 1 %call8, ptr align 1 %2, i64 %1, i1 false)
  br label %if.end

if.end:                                           ; preds = %if.then14, %cond.true6
  %types17 = getelementptr inbounds nuw i8, ptr %split, i64 16
  %3 = load ptr, ptr %types17, align 8
  tail call void @BrotliFree(ptr noundef %m, ptr noundef %3) #9
  store ptr %call8, ptr %types17, align 8
  store i64 %_new_size.0, ptr %types_alloc_size, align 8
  br label %if.end21

if.end21:                                         ; preds = %if.end, %entry
  %lengths_alloc_size = getelementptr inbounds nuw i8, ptr %split, i64 40
  %4 = load i64, ptr %lengths_alloc_size, align 8
  %cmp22.not = icmp ugt i64 %4, %div69
  br i1 %cmp22.not, label %if.end55, label %if.then23

if.then23:                                        ; preds = %if.end21
  %cmp26 = icmp eq i64 %4, 0
  %add.70 = select i1 %cmp26, i64 %add, i64 %4
  br label %while.cond33

while.cond33:                                     ; preds = %while.cond33, %if.then23
  %_new_size24.0 = phi i64 [ %add.70, %if.then23 ], [ %mul36, %while.cond33 ]
  %cmp34.not = icmp ugt i64 %_new_size24.0, %div69
  %mul36 = shl nuw nsw i64 %_new_size24.0, 1
  br i1 %cmp34.not, label %cond.true39, label %while.cond33, !llvm.loop !31

cond.true39:                                      ; preds = %while.cond33
  %mul40 = shl nuw nsw i64 %_new_size24.0, 2
  %call41 = tail call ptr @BrotliAllocate(ptr noundef %m, i64 noundef %mul40) #9
  %5 = load i64, ptr %lengths_alloc_size, align 8
  %cmp46.not = icmp eq i64 %5, 0
  br i1 %cmp46.not, label %if.end50, label %if.then47

if.then47:                                        ; preds = %cond.true39
  %lengths = getelementptr inbounds nuw i8, ptr %split, i64 24
  %6 = load ptr, ptr %lengths, align 8
  %mul49 = shl i64 %5, 2
  tail call void @llvm.memcpy.p0.p0.i64(ptr align 4 %call41, ptr align 4 %6, i64 %mul49, i1 false)
  br label %if.end50

if.end50:                                         ; preds = %if.then47, %cond.true39
  %lengths51 = getelementptr inbounds nuw i8, ptr %split, i64 24
  %7 = load ptr, ptr %lengths51, align 8
  tail call void @BrotliFree(ptr noundef %m, ptr noundef %7) #9
  store ptr %call41, ptr %lengths51, align 8
  store i64 %_new_size24.0, ptr %lengths_alloc_size, align 8
  br label %if.end55

if.end55:                                         ; preds = %if.end50, %if.end21
  %cond.i = tail call i64 @llvm.umin.i64(i64 %add, i64 257)
  %8 = load ptr, ptr %split_, align 8
  %num_blocks = getelementptr inbounds nuw i8, ptr %8, i64 8
  store i64 %add, ptr %num_blocks, align 8
  store i64 %cond.i, ptr %histograms_size, align 8
  %mul59 = mul nuw nsw i64 %cond.i, 2192
  %call60 = tail call ptr @BrotliAllocate(ptr noundef %m, i64 noundef %mul59) #9
  store ptr %call60, ptr %histograms, align 8
  %histograms_ = getelementptr inbounds nuw i8, ptr %self, i64 40
  store ptr %call60, ptr %histograms_, align 8
  %bit_cost_.i = getelementptr inbounds nuw i8, ptr %call60, i64 2184
  tail call void @llvm.memset.p0.i64(ptr noundef nonnull align 8 dereferenceable(2184) %call60, i8 0, i64 2184, i1 false)
  store double 0x7FF0000000000000, ptr %bit_cost_.i, align 8
  %last_histogram_ix_ = getelementptr inbounds nuw i8, ptr %self, i64 4464
  tail call void @llvm.memset.p0.i64(ptr noundef nonnull align 8 dereferenceable(16) %last_histogram_ix_, i8 0, i64 16, i1 false)
  ret void
}